
_init_variables:

;Master.c,83 :: 		void init_variables() {
;Master.c,85 :: 		no_ch = 0x00;
	CLRF        _no_ch+0 
;Master.c,86 :: 		ByteID = 0x00;
	CLRF        _ByteID+0 
;Master.c,87 :: 		Flag1 = 0x00;
	CLRF        _Flag1+0 
;Master.c,88 :: 		FlagRTC = 0x00;
	CLRF        _FlagRTC+0 
;Master.c,89 :: 		updateLCDFlag = 0x00;
	CLRF        _updateLCDFlag+0 
;Master.c,90 :: 		btnCnt = 0x00;
	CLRF        _btnCnt+0 
;Master.c,91 :: 		cntDisp=0x00;
	CLRF        _cntDisp+0 
;Master.c,93 :: 		SLAVE_ID = 0x0F;
	MOVLW       15
	MOVWF       _SLAVE_ID+0 
;Master.c,94 :: 		for (i = 0; i < 16; i++) {
	CLRF        _i+0 
L_init_variables0:
	MOVLW       16
	SUBWF       _i+0, 0 
	BTFSC       STATUS+0, 0 
	GOTO        L_init_variables1
;Master.c,95 :: 		Comm[i] = 0x00;
	MOVLW       _Comm+0
	MOVWF       FSR1L 
	MOVLW       hi_addr(_Comm+0)
	MOVWF       FSR1H 
	MOVF        _i+0, 0 
	ADDWF       FSR1L, 1 
	BTFSC       STATUS+0, 0 
	INCF        FSR1H, 1 
	CLRF        POSTINC1+0 
;Master.c,96 :: 		Hour[i] = 0x00;
	MOVLW       _Hour+0
	MOVWF       FSR1L 
	MOVLW       hi_addr(_Hour+0)
	MOVWF       FSR1H 
	MOVF        _i+0, 0 
	ADDWF       FSR1L, 1 
	BTFSC       STATUS+0, 0 
	INCF        FSR1H, 1 
	CLRF        POSTINC1+0 
;Master.c,97 :: 		Min[i] = 0x00;
	MOVLW       _Min+0
	MOVWF       FSR1L 
	MOVLW       hi_addr(_Min+0)
	MOVWF       FSR1H 
	MOVF        _i+0, 0 
	ADDWF       FSR1L, 1 
	BTFSC       STATUS+0, 0 
	INCF        FSR1H, 1 
	CLRF        POSTINC1+0 
;Master.c,98 :: 		Sec[i] = 0x00;
	MOVLW       _Sec+0
	MOVWF       FSR1L 
	MOVLW       hi_addr(_Sec+0)
	MOVWF       FSR1H 
	MOVF        _i+0, 0 
	ADDWF       FSR1L, 1 
	BTFSC       STATUS+0, 0 
	INCF        FSR1H, 1 
	CLRF        POSTINC1+0 
;Master.c,99 :: 		Status1[i]=0x00;
	MOVLW       _Status1+0
	MOVWF       FSR1L 
	MOVLW       hi_addr(_Status1+0)
	MOVWF       FSR1H 
	MOVF        _i+0, 0 
	ADDWF       FSR1L, 1 
	BTFSC       STATUS+0, 0 
	INCF        FSR1H, 1 
	CLRF        POSTINC1+0 
;Master.c,100 :: 		Program[i].startHour = 0x00;
	MOVF        _i+0, 0 
	MOVWF       R0 
	MOVLW       0
	MOVWF       R1 
	RLCF        R0, 1 
	BCF         R0, 0 
	RLCF        R1, 1 
	RLCF        R0, 1 
	BCF         R0, 0 
	RLCF        R1, 1 
	MOVLW       _Program+0
	ADDWF       R0, 0 
	MOVWF       FSR1L 
	MOVLW       hi_addr(_Program+0)
	ADDWFC      R1, 0 
	MOVWF       FSR1H 
	CLRF        POSTINC1+0 
;Master.c,101 :: 		Program[i].startMin = 0x00;
	MOVF        _i+0, 0 
	MOVWF       R0 
	MOVLW       0
	MOVWF       R1 
	RLCF        R0, 1 
	BCF         R0, 0 
	RLCF        R1, 1 
	RLCF        R0, 1 
	BCF         R0, 0 
	RLCF        R1, 1 
	MOVLW       _Program+0
	ADDWF       R0, 1 
	MOVLW       hi_addr(_Program+0)
	ADDWFC      R1, 1 
	MOVLW       1
	ADDWF       R0, 0 
	MOVWF       FSR1L 
	MOVLW       0
	ADDWFC      R1, 0 
	MOVWF       FSR1H 
	CLRF        POSTINC1+0 
;Master.c,102 :: 		Program[i].durationsH = 0x00;
	MOVF        _i+0, 0 
	MOVWF       R0 
	MOVLW       0
	MOVWF       R1 
	RLCF        R0, 1 
	BCF         R0, 0 
	RLCF        R1, 1 
	RLCF        R0, 1 
	BCF         R0, 0 
	RLCF        R1, 1 
	MOVLW       _Program+0
	ADDWF       R0, 1 
	MOVLW       hi_addr(_Program+0)
	ADDWFC      R1, 1 
	MOVLW       2
	ADDWF       R0, 0 
	MOVWF       FSR1L 
	MOVLW       0
	ADDWFC      R1, 0 
	MOVWF       FSR1H 
	CLRF        POSTINC1+0 
;Master.c,103 :: 		Program[i].durationsL = 0x00;
	MOVF        _i+0, 0 
	MOVWF       R0 
	MOVLW       0
	MOVWF       R1 
	RLCF        R0, 1 
	BCF         R0, 0 
	RLCF        R1, 1 
	RLCF        R0, 1 
	BCF         R0, 0 
	RLCF        R1, 1 
	MOVLW       _Program+0
	ADDWF       R0, 1 
	MOVLW       hi_addr(_Program+0)
	ADDWFC      R1, 1 
	MOVLW       3
	ADDWF       R0, 0 
	MOVWF       FSR1L 
	MOVLW       0
	ADDWFC      R1, 0 
	MOVWF       FSR1H 
	CLRF        POSTINC1+0 
;Master.c,104 :: 		Garden[i].modeID = 0x00;
	MOVF        _i+0, 0 
	MOVWF       R0 
	MOVLW       0
	MOVWF       R1 
	RLCF        R0, 1 
	BCF         R0, 0 
	RLCF        R1, 1 
	MOVLW       _Garden+0
	ADDWF       R0, 0 
	MOVWF       FSR1L 
	MOVLW       hi_addr(_Garden+0)
	ADDWFC      R1, 0 
	MOVWF       FSR1H 
	CLRF        POSTINC1+0 
;Master.c,105 :: 		Garden[i].gardenSend = 0x00;
	MOVF        _i+0, 0 
	MOVWF       R0 
	MOVLW       0
	MOVWF       R1 
	RLCF        R0, 1 
	BCF         R0, 0 
	RLCF        R1, 1 
	MOVLW       _Garden+0
	ADDWF       R0, 1 
	MOVLW       hi_addr(_Garden+0)
	ADDWFC      R1, 1 
	MOVLW       1
	ADDWF       R0, 0 
	MOVWF       FSR1L 
	MOVLW       0
	ADDWFC      R1, 0 
	MOVWF       FSR1H 
	CLRF        POSTINC1+0 
;Master.c,94 :: 		for (i = 0; i < 16; i++) {
	INCF        _i+0, 1 
;Master.c,107 :: 		}
	GOTO        L_init_variables0
L_init_variables1:
;Master.c,108 :: 		}
	RETURN      0
; end of _init_variables

_init:

;Master.c,110 :: 		void init() {
;Master.c,112 :: 		PIR1 = 0b00000000; // flegovi prijema preko UART-a
	CLRF        PIR1+0 
;Master.c,113 :: 		PIE1 = 0b00100001; // dozvola prekida za UART, RCIE, TMR1IE
	MOVLW       33
	MOVWF       PIE1+0 
;Master.c,117 :: 		T1CON = 0b10110000; // konfiguracija za tajmer1
	MOVLW       176
	MOVWF       T1CON+0 
;Master.c,118 :: 		T1CON.TMR1ON = 1;
	BSF         T1CON+0, 0 
;Master.c,124 :: 		TMR1L = 0xB5;
	MOVLW       181
	MOVWF       TMR1L+0 
;Master.c,125 :: 		TMR1H = 0xB3;
	MOVLW       179
	MOVWF       TMR1H+0 
;Master.c,127 :: 		INTCON = 0b01000000; // periferijski interapt
	MOVLW       64
	MOVWF       INTCON+0 
;Master.c,128 :: 		INTCON.GIE = 1;      // globalna dozvola prekida
	BSF         INTCON+0, 7 
;Master.c,131 :: 		TRISA = 0x00;
	CLRF        TRISA+0 
;Master.c,134 :: 		TRISB = 0x0F; // ostali pinovi PORTB su izlazi
	MOVLW       15
	MOVWF       TRISB+0 
;Master.c,135 :: 		TRISC = 0xD0; // 0b11010000; // ovo je OK
	MOVLW       208
	MOVWF       TRISC+0 
;Master.c,137 :: 		PORTA = 0x00;
	CLRF        PORTA+0 
;Master.c,138 :: 		PORTB = 0x00;
	CLRF        PORTB+0 
;Master.c,139 :: 		PORTC = 0x00;
	CLRF        PORTC+0 
;Master.c,141 :: 		ADCON0 = 0x00; // iskljucujemo A/D konverziju
	CLRF        ADCON0+0 
;Master.c,142 :: 		ADCON1 = 0x0F; // svi digitalni
	MOVLW       15
	MOVWF       ADCON1+0 
;Master.c,145 :: 		UART1_Init(UART_BAUD_RATE);
	MOVLW       80
	MOVWF       SPBRG+0 
	BSF         TXSTA+0, 2, 0
	CALL        _UART1_Init+0, 0
;Master.c,148 :: 		TXSTA.TXEN = 1;
	BSF         TXSTA+0, 5 
;Master.c,149 :: 		RCSTA.SPEN = 1;
	BSF         RCSTA+0, 7 
;Master.c,150 :: 		RCSTA.CREN = 1;
	BSF         RCSTA+0, 4 
;Master.c,151 :: 		SPI1_Init_Advanced(_SPI_MASTER_OSC_DIV64, _SPI_DATA_SAMPLE_MIDDLE,
	MOVLW       2
	MOVWF       FARG_SPI1_Init_Advanced_master+0 
	CLRF        FARG_SPI1_Init_Advanced_data_sample+0 
;Master.c,152 :: 		_SPI_CLK_IDLE_LOW, _SPI_LOW_2_HIGH);
	CLRF        FARG_SPI1_Init_Advanced_clock_idle+0 
	MOVLW       1
	MOVWF       FARG_SPI1_Init_Advanced_transmit_edge+0 
	CALL        _SPI1_Init_Advanced+0, 0
;Master.c,153 :: 		SPI_Ethernet_Init(myMacAddr, myIpAddr, SPI_Ethernet_FULLDUPLEX);
	MOVLW       _myMacAddr+0
	MOVWF       FARG_SPI_Ethernet_Init_mac+0 
	MOVLW       hi_addr(_myMacAddr+0)
	MOVWF       FARG_SPI_Ethernet_Init_mac+1 
	MOVLW       _myIpAddr+0
	MOVWF       FARG_SPI_Ethernet_Init_ip+0 
	MOVLW       hi_addr(_myIpAddr+0)
	MOVWF       FARG_SPI_Ethernet_Init_ip+1 
	MOVLW       1
	MOVWF       FARG_SPI_Ethernet_Init_fullDuplex+0 
	CALL        _SPI_Ethernet_Init+0, 0
;Master.c,154 :: 		Lcd_Init();
	CALL        _Lcd_Init+0, 0
;Master.c,155 :: 		Lcd_Cmd(_LCD_CLEAR);
	MOVLW       1
	MOVWF       FARG_Lcd_Cmd_out_char+0 
	CALL        _Lcd_Cmd+0, 0
;Master.c,156 :: 		Lcd_Cmd(_LCD_CURSOR_OFF);
	MOVLW       12
	MOVWF       FARG_Lcd_Cmd_out_char+0 
	CALL        _Lcd_Cmd+0, 0
;Master.c,158 :: 		}
	RETURN      0
; end of _init

_putConstString:

;Master.c,160 :: 		unsigned int putConstString(const char *s) {
;Master.c,161 :: 		unsigned int cnt = 0;
	CLRF        putConstString_cnt_L0+0 
	CLRF        putConstString_cnt_L0+1 
;Master.c,162 :: 		while (*s) {
L_putConstString3:
	MOVF        FARG_putConstString_s+0, 0 
	MOVWF       TBLPTRL 
	MOVF        FARG_putConstString_s+1, 0 
	MOVWF       TBLPTRH 
	MOVF        FARG_putConstString_s+2, 0 
	MOVWF       TBLPTRU 
	TBLRD*+
	MOVFF       TABLAT+0, R0
	MOVF        R0, 1 
	BTFSC       STATUS+0, 2 
	GOTO        L_putConstString4
;Master.c,163 :: 		SPI_Ethernet_putByte(*s++);
	MOVF        FARG_putConstString_s+0, 0 
	MOVWF       TBLPTRL 
	MOVF        FARG_putConstString_s+1, 0 
	MOVWF       TBLPTRH 
	MOVF        FARG_putConstString_s+2, 0 
	MOVWF       TBLPTRU 
	TBLRD*+
	MOVFF       TABLAT+0, FARG_SPI_Ethernet_putByte_v+0
	CALL        _SPI_Ethernet_putByte+0, 0
	MOVLW       1
	ADDWF       FARG_putConstString_s+0, 1 
	MOVLW       0
	ADDWFC      FARG_putConstString_s+1, 1 
	ADDWFC      FARG_putConstString_s+2, 1 
;Master.c,164 :: 		cnt++;
	INFSNZ      putConstString_cnt_L0+0, 1 
	INCF        putConstString_cnt_L0+1, 1 
;Master.c,165 :: 		}
	GOTO        L_putConstString3
L_putConstString4:
;Master.c,166 :: 		return (cnt);
	MOVF        putConstString_cnt_L0+0, 0 
	MOVWF       R0 
	MOVF        putConstString_cnt_L0+1, 0 
	MOVWF       R1 
;Master.c,167 :: 		}
	RETURN      0
; end of _putConstString

_putString:

;Master.c,168 :: 		unsigned int putString(char *s) {
;Master.c,169 :: 		unsigned int cnt = 0;
	CLRF        putString_cnt_L0+0 
	CLRF        putString_cnt_L0+1 
;Master.c,170 :: 		while (*s) {
L_putString5:
	MOVFF       FARG_putString_s+0, FSR0L
	MOVFF       FARG_putString_s+1, FSR0H
	MOVF        POSTINC0+0, 1 
	BTFSC       STATUS+0, 2 
	GOTO        L_putString6
;Master.c,171 :: 		SPI_Ethernet_putByte(*s++);
	MOVFF       FARG_putString_s+0, FSR0L
	MOVFF       FARG_putString_s+1, FSR0H
	MOVF        POSTINC0+0, 0 
	MOVWF       FARG_SPI_Ethernet_putByte_v+0 
	CALL        _SPI_Ethernet_putByte+0, 0
	INFSNZ      FARG_putString_s+0, 1 
	INCF        FARG_putString_s+1, 1 
;Master.c,172 :: 		cnt++;
	INFSNZ      putString_cnt_L0+0, 1 
	INCF        putString_cnt_L0+1, 1 
;Master.c,173 :: 		}
	GOTO        L_putString5
L_putString6:
;Master.c,174 :: 		return (cnt);
	MOVF        putString_cnt_L0+0, 0 
	MOVWF       R0 
	MOVF        putString_cnt_L0+1, 0 
	MOVWF       R1 
;Master.c,175 :: 		}
	RETURN      0
; end of _putString

_appendBuffer:

;Master.c,176 :: 		void appendBuffer(char *p_ch) {
;Master.c,177 :: 		while ((*p_ch) != 0x00) {
L_appendBuffer7:
	MOVFF       FARG_appendBuffer_p_ch+0, FSR0L
	MOVFF       FARG_appendBuffer_p_ch+1, FSR0H
	MOVF        POSTINC0+0, 0 
	XORLW       0
	BTFSC       STATUS+0, 2 
	GOTO        L_appendBuffer8
;Master.c,178 :: 		buffer[no_ch] = *p_ch;
	MOVLW       _buffer+0
	MOVWF       FSR1L 
	MOVLW       hi_addr(_buffer+0)
	MOVWF       FSR1H 
	MOVF        _no_ch+0, 0 
	ADDWF       FSR1L, 1 
	BTFSC       STATUS+0, 0 
	INCF        FSR1H, 1 
	MOVFF       FARG_appendBuffer_p_ch+0, FSR0L
	MOVFF       FARG_appendBuffer_p_ch+1, FSR0H
	MOVF        POSTINC0+0, 0 
	MOVWF       POSTINC1+0 
;Master.c,179 :: 		no_ch++;
	INCF        _no_ch+0, 1 
;Master.c,180 :: 		p_ch++;
	INFSNZ      FARG_appendBuffer_p_ch+0, 1 
	INCF        FARG_appendBuffer_p_ch+1, 1 
;Master.c,181 :: 		}
	GOTO        L_appendBuffer7
L_appendBuffer8:
;Master.c,182 :: 		}
	RETURN      0
; end of _appendBuffer

_formBuffer:

;Master.c,183 :: 		void formBuffer() {
;Master.c,184 :: 		unsigned char i = 0;
	CLRF        formBuffer_i_L0+0 
;Master.c,186 :: 		unsigned char StatusByte = 0x00;
	CLRF        formBuffer_StatusByte_L0+0 
;Master.c,187 :: 		no_ch = 0x00; // pozicioniranje na pocetak niza
	CLRF        _no_ch+0 
;Master.c,189 :: 		for (i = 0; i < 16; i++) {
	CLRF        formBuffer_i_L0+0 
L_formBuffer9:
	MOVLW       16
	SUBWF       formBuffer_i_L0+0, 0 
	BTFSC       STATUS+0, 0 
	GOTO        L_formBuffer10
;Master.c,190 :: 		if (Comm[i] == 1) { // samo slejvovi koji su se odazvali
	MOVLW       _Comm+0
	MOVWF       FSR0L 
	MOVLW       hi_addr(_Comm+0)
	MOVWF       FSR0H 
	MOVF        formBuffer_i_L0+0, 0 
	ADDWF       FSR0L, 1 
	BTFSC       STATUS+0, 0 
	INCF        FSR0H, 1 
	MOVF        POSTINC0+0, 0 
	XORLW       1
	BTFSS       STATUS+0, 2 
	GOTO        L_formBuffer12
;Master.c,191 :: 		appendBuffer("Basta:");
	MOVLW       ?lstr1_Master+0
	MOVWF       FARG_appendBuffer_p_ch+0 
	MOVLW       hi_addr(?lstr1_Master+0)
	MOVWF       FARG_appendBuffer_p_ch+1 
	CALL        _appendBuffer+0, 0
;Master.c,192 :: 		ByteToStr(i, txt);
	MOVF        formBuffer_i_L0+0, 0 
	MOVWF       FARG_ByteToStr_input+0 
	MOVLW       formBuffer_txt_L0+0
	MOVWF       FARG_ByteToStr_output+0 
	MOVLW       hi_addr(formBuffer_txt_L0+0)
	MOVWF       FARG_ByteToStr_output+1 
	CALL        _ByteToStr+0, 0
;Master.c,193 :: 		appendBuffer(txt); // append broj baste
	MOVLW       formBuffer_txt_L0+0
	MOVWF       FARG_appendBuffer_p_ch+0 
	MOVLW       hi_addr(formBuffer_txt_L0+0)
	MOVWF       FARG_appendBuffer_p_ch+1 
	CALL        _appendBuffer+0, 0
;Master.c,194 :: 		appendBuffer(" ");
	MOVLW       ?lstr2_Master+0
	MOVWF       FARG_appendBuffer_p_ch+0 
	MOVLW       hi_addr(?lstr2_Master+0)
	MOVWF       FARG_appendBuffer_p_ch+1 
	CALL        _appendBuffer+0, 0
;Master.c,196 :: 		StatusByte = Status1[i];
	MOVLW       _Status1+0
	MOVWF       FSR0L 
	MOVLW       hi_addr(_Status1+0)
	MOVWF       FSR0H 
	MOVF        formBuffer_i_L0+0, 0 
	ADDWF       FSR0L, 1 
	BTFSC       STATUS+0, 0 
	INCF        FSR0H, 1 
	MOVF        POSTINC0+0, 0 
	MOVWF       R1 
	MOVF        R1, 0 
	MOVWF       formBuffer_StatusByte_L0+0 
;Master.c,199 :: 		if (!(StatusByte & STATUS_SYSTEM_BIT)) {
	BTFSC       R1, 7 
	GOTO        L_formBuffer13
;Master.c,200 :: 		appendBuffer("OFF\n\n");
	MOVLW       ?lstr3_Master+0
	MOVWF       FARG_appendBuffer_p_ch+0 
	MOVLW       hi_addr(?lstr3_Master+0)
	MOVWF       FARG_appendBuffer_p_ch+1 
	CALL        _appendBuffer+0, 0
;Master.c,201 :: 		} else if (StatusByte & STATUS_WATER_BIT) {
	GOTO        L_formBuffer14
L_formBuffer13:
	BTFSS       formBuffer_StatusByte_L0+0, 6 
	GOTO        L_formBuffer15
;Master.c,202 :: 		if (StatusByte & STATUS_MANUAL_BIT) {
	BTFSS       formBuffer_StatusByte_L0+0, 4 
	GOTO        L_formBuffer16
;Master.c,203 :: 		appendBuffer("Watering(Manual_Mode)\n\n");
	MOVLW       ?lstr4_Master+0
	MOVWF       FARG_appendBuffer_p_ch+0 
	MOVLW       hi_addr(?lstr4_Master+0)
	MOVWF       FARG_appendBuffer_p_ch+1 
	CALL        _appendBuffer+0, 0
;Master.c,204 :: 		if (StatusByte & STATUS_ALARM_BIT) {
	BTFSS       formBuffer_StatusByte_L0+0, 5 
	GOTO        L_formBuffer17
;Master.c,205 :: 		appendBuffer("ALARM ON\n\n");
	MOVLW       ?lstr5_Master+0
	MOVWF       FARG_appendBuffer_p_ch+0 
	MOVLW       hi_addr(?lstr5_Master+0)
	MOVWF       FARG_appendBuffer_p_ch+1 
	CALL        _appendBuffer+0, 0
;Master.c,206 :: 		}
L_formBuffer17:
;Master.c,207 :: 		} else {
	GOTO        L_formBuffer18
L_formBuffer16:
;Master.c,208 :: 		appendBuffer("Watering(Automatic_Mode)\n\n");
	MOVLW       ?lstr6_Master+0
	MOVWF       FARG_appendBuffer_p_ch+0 
	MOVLW       hi_addr(?lstr6_Master+0)
	MOVWF       FARG_appendBuffer_p_ch+1 
	CALL        _appendBuffer+0, 0
;Master.c,209 :: 		if (StatusByte & STATUS_ALARM_BIT) {
	BTFSS       formBuffer_StatusByte_L0+0, 5 
	GOTO        L_formBuffer19
;Master.c,210 :: 		appendBuffer("ALARM ON\n\n");
	MOVLW       ?lstr7_Master+0
	MOVWF       FARG_appendBuffer_p_ch+0 
	MOVLW       hi_addr(?lstr7_Master+0)
	MOVWF       FARG_appendBuffer_p_ch+1 
	CALL        _appendBuffer+0, 0
;Master.c,211 :: 		}
L_formBuffer19:
;Master.c,212 :: 		}
L_formBuffer18:
;Master.c,213 :: 		}
	GOTO        L_formBuffer20
L_formBuffer15:
;Master.c,216 :: 		appendBuffer("IDLE\n\n");
	MOVLW       ?lstr8_Master+0
	MOVWF       FARG_appendBuffer_p_ch+0 
	MOVLW       hi_addr(?lstr8_Master+0)
	MOVWF       FARG_appendBuffer_p_ch+1 
	CALL        _appendBuffer+0, 0
;Master.c,217 :: 		}
L_formBuffer20:
L_formBuffer14:
;Master.c,218 :: 		}
L_formBuffer12:
;Master.c,189 :: 		for (i = 0; i < 16; i++) {
	INCF        formBuffer_i_L0+0, 1 
;Master.c,219 :: 		}
	GOTO        L_formBuffer9
L_formBuffer10:
;Master.c,220 :: 		buffer[no_ch] = 0x00;
	MOVLW       _buffer+0
	MOVWF       FSR1L 
	MOVLW       hi_addr(_buffer+0)
	MOVWF       FSR1H 
	MOVF        _no_ch+0, 0 
	ADDWF       FSR1L, 1 
	BTFSC       STATUS+0, 0 
	INCF        FSR1H, 1 
	CLRF        POSTINC1+0 
;Master.c,221 :: 		no_ch++; // kraj stringa
	INCF        _no_ch+0, 1 
;Master.c,222 :: 		}
	RETURN      0
; end of _formBuffer

_SPI_Ethernet_UserUDP:

;Master.c,226 :: 		TEthPktFlags *flags) {
;Master.c,227 :: 		return 0;
	CLRF        R0 
	CLRF        R1 
;Master.c,228 :: 		}
	RETURN      0
; end of _SPI_Ethernet_UserUDP

_SPI_Ethernet_UserTCP:

;Master.c,232 :: 		unsigned int reqLength, char *canCloseTCP) {
;Master.c,233 :: 		unsigned int len = 0; // reply length
	CLRF        SPI_Ethernet_UserTCP_len_L0+0 
	CLRF        SPI_Ethernet_UserTCP_len_L0+1 
;Master.c,235 :: 		if (localPort != 80) {
	MOVLW       0
	XORWF       FARG_SPI_Ethernet_UserTCP_localPort+1, 0 
	BTFSS       STATUS+0, 2 
	GOTO        L__SPI_Ethernet_UserTCP97
	MOVLW       80
	XORWF       FARG_SPI_Ethernet_UserTCP_localPort+0, 0 
L__SPI_Ethernet_UserTCP97:
	BTFSC       STATUS+0, 2 
	GOTO        L_SPI_Ethernet_UserTCP21
;Master.c,236 :: 		return 0;
	CLRF        R0 
	CLRF        R1 
	RETURN      0
;Master.c,237 :: 		}
L_SPI_Ethernet_UserTCP21:
;Master.c,238 :: 		PORTA.F4 = 1;
	BSF         PORTA+0, 4 
;Master.c,239 :: 		for (i = 0; i < 16; i++) {
	CLRF        SPI_Ethernet_UserTCP_i_L0+0 
	CLRF        SPI_Ethernet_UserTCP_i_L0+1 
L_SPI_Ethernet_UserTCP22:
	MOVLW       0
	SUBWF       SPI_Ethernet_UserTCP_i_L0+1, 0 
	BTFSS       STATUS+0, 2 
	GOTO        L__SPI_Ethernet_UserTCP98
	MOVLW       16
	SUBWF       SPI_Ethernet_UserTCP_i_L0+0, 0 
L__SPI_Ethernet_UserTCP98:
	BTFSC       STATUS+0, 0 
	GOTO        L_SPI_Ethernet_UserTCP23
;Master.c,240 :: 		getRequest[i] = SPI_Ethernet_getByte();
	MOVLW       _getRequest+0
	ADDWF       SPI_Ethernet_UserTCP_i_L0+0, 0 
	MOVWF       FLOC__SPI_Ethernet_UserTCP+0 
	MOVLW       hi_addr(_getRequest+0)
	ADDWFC      SPI_Ethernet_UserTCP_i_L0+1, 0 
	MOVWF       FLOC__SPI_Ethernet_UserTCP+1 
	CALL        _SPI_Ethernet_getByte+0, 0
	MOVFF       FLOC__SPI_Ethernet_UserTCP+0, FSR1L
	MOVFF       FLOC__SPI_Ethernet_UserTCP+1, FSR1H
	MOVF        R0, 0 
	MOVWF       POSTINC1+0 
;Master.c,239 :: 		for (i = 0; i < 16; i++) {
	INFSNZ      SPI_Ethernet_UserTCP_i_L0+0, 1 
	INCF        SPI_Ethernet_UserTCP_i_L0+1, 1 
;Master.c,241 :: 		}
	GOTO        L_SPI_Ethernet_UserTCP22
L_SPI_Ethernet_UserTCP23:
;Master.c,242 :: 		getRequest[i] = 0;
	MOVLW       _getRequest+0
	ADDWF       SPI_Ethernet_UserTCP_i_L0+0, 0 
	MOVWF       FSR1L 
	MOVLW       hi_addr(_getRequest+0)
	ADDWFC      SPI_Ethernet_UserTCP_i_L0+1, 0 
	MOVWF       FSR1H 
	CLRF        POSTINC1+0 
;Master.c,244 :: 		if (memcmp(getRequest, httpMethod, 5)) {
	MOVLW       _getRequest+0
	MOVWF       FARG_memcmp_s1+0 
	MOVLW       hi_addr(_getRequest+0)
	MOVWF       FARG_memcmp_s1+1 
	MOVLW       _httpMethod+0
	MOVWF       FARG_memcmp_s2+0 
	MOVLW       hi_addr(_httpMethod+0)
	MOVWF       FARG_memcmp_s2+1 
	MOVLW       5
	MOVWF       FARG_memcmp_n+0 
	MOVLW       0
	MOVWF       FARG_memcmp_n+1 
	CALL        _memcmp+0, 0
	MOVF        R0, 0 
	IORWF       R1, 0 
	BTFSC       STATUS+0, 2 
	GOTO        L_SPI_Ethernet_UserTCP25
;Master.c,245 :: 		return 0;
	CLRF        R0 
	CLRF        R1 
	RETURN      0
;Master.c,246 :: 		}
L_SPI_Ethernet_UserTCP25:
;Master.c,247 :: 		if (getRequest[5] == 'r') { // RTC
	MOVF        _getRequest+5, 0 
	XORLW       114
	BTFSS       STATUS+0, 2 
	GOTO        L_SPI_Ethernet_UserTCP26
;Master.c,249 :: 		FlagRTC = 0x01; // setovanje Flega za RTC
	MOVLW       1
	MOVWF       _FlagRTC+0 
;Master.c,252 :: 		hours = (getRequest[6] & 0x0F) * 10 + (getRequest[7] & 0x0F);
	MOVLW       15
	ANDWF       _getRequest+6, 0 
	MOVWF       _hours+0 
	MOVLW       10
	MULWF       _hours+0 
	MOVF        PRODL+0, 0 
	MOVWF       _hours+0 
	MOVLW       15
	ANDWF       _getRequest+7, 0 
	MOVWF       R0 
	MOVF        R0, 0 
	ADDWF       _hours+0, 1 
;Master.c,253 :: 		minutes = (getRequest[8] & 0x0F) * 10 + (getRequest[9] & 0x0F);
	MOVLW       15
	ANDWF       _getRequest+8, 0 
	MOVWF       _minutes+0 
	MOVLW       10
	MULWF       _minutes+0 
	MOVF        PRODL+0, 0 
	MOVWF       _minutes+0 
	MOVLW       15
	ANDWF       _getRequest+9, 0 
	MOVWF       R0 
	MOVF        R0, 0 
	ADDWF       _minutes+0, 1 
;Master.c,254 :: 		seconds = (getRequest[10] & 0x0F) * 10 + (getRequest[11] & 0x0F);
	MOVLW       15
	ANDWF       _getRequest+10, 0 
	MOVWF       _seconds+0 
	MOVLW       10
	MULWF       _seconds+0 
	MOVF        PRODL+0, 0 
	MOVWF       _seconds+0 
	MOVLW       15
	ANDWF       _getRequest+11, 0 
	MOVWF       R0 
	MOVF        R0, 0 
	ADDWF       _seconds+0, 1 
;Master.c,255 :: 		} else if (getRequest[5] == 'b') { // basta /bXX|YY /567
	GOTO        L_SPI_Ethernet_UserTCP27
L_SPI_Ethernet_UserTCP26:
	MOVF        _getRequest+5, 0 
	XORLW       98
	BTFSS       STATUS+0, 2 
	GOTO        L_SPI_Ethernet_UserTCP28
;Master.c,256 :: 		Garden[(getRequest[6] & 0x0F) * 10 + (getRequest[7] & 0x0F)].modeID =
	MOVLW       15
	ANDWF       _getRequest+6, 0 
	MOVWF       R0 
	MOVLW       10
	MULWF       R0 
	MOVF        PRODL+0, 0 
	MOVWF       R1 
	MOVF        PRODH+0, 0 
	MOVWF       R2 
	MOVLW       15
	ANDWF       _getRequest+7, 0 
	MOVWF       R0 
	MOVF        R0, 0 
	ADDWF       R1, 0 
	MOVWF       R3 
	MOVLW       0
	ADDWFC      R2, 0 
	MOVWF       R4 
	MOVF        R3, 0 
	MOVWF       R0 
	MOVF        R4, 0 
	MOVWF       R1 
	RLCF        R0, 1 
	BCF         R0, 0 
	RLCF        R1, 1 
	MOVLW       _Garden+0
	ADDWF       R0, 1 
	MOVLW       hi_addr(_Garden+0)
	ADDWFC      R1, 1 
	MOVF        R0, 0 
	MOVWF       FSR1L 
	MOVF        R1, 0 
	MOVWF       FSR1H 
;Master.c,257 :: 		(getRequest[8] & 0x0F) * 10 + (getRequest[9] & 0x0F);
	MOVLW       15
	ANDWF       _getRequest+8, 0 
	MOVWF       R0 
	MOVLW       10
	MULWF       R0 
	MOVF        PRODL+0, 0 
	MOVWF       R1 
	MOVLW       15
	ANDWF       _getRequest+9, 0 
	MOVWF       R0 
	MOVF        R1, 0 
	ADDWF       R0, 1 
	MOVF        R0, 0 
	MOVWF       POSTINC1+0 
;Master.c,258 :: 		Garden[(getRequest[6] & 0x0F) * 10 + (getRequest[7] & 0x0F)].gardenSend =
	MOVLW       15
	ANDWF       _getRequest+6, 0 
	MOVWF       R0 
	MOVLW       10
	MULWF       R0 
	MOVF        PRODL+0, 0 
	MOVWF       R1 
	MOVF        PRODH+0, 0 
	MOVWF       R2 
	MOVLW       15
	ANDWF       _getRequest+7, 0 
	MOVWF       R0 
	MOVF        R0, 0 
	ADDWF       R1, 0 
	MOVWF       R3 
	MOVLW       0
	ADDWFC      R2, 0 
	MOVWF       R4 
	MOVF        R3, 0 
	MOVWF       R0 
	MOVF        R4, 0 
	MOVWF       R1 
	RLCF        R0, 1 
	BCF         R0, 0 
	RLCF        R1, 1 
	MOVLW       _Garden+0
	ADDWF       R0, 1 
	MOVLW       hi_addr(_Garden+0)
	ADDWFC      R1, 1 
	MOVLW       1
	ADDWF       R0, 0 
	MOVWF       FSR1L 
	MOVLW       0
	ADDWFC      R1, 0 
	MOVWF       FSR1H 
;Master.c,259 :: 		0x01;
	MOVLW       1
	MOVWF       POSTINC1+0 
;Master.c,260 :: 		} else if (getRequest[5] == 'p') { // Program
	GOTO        L_SPI_Ethernet_UserTCP29
L_SPI_Ethernet_UserTCP28:
	MOVF        _getRequest+5, 0 
	XORLW       112
	BTFSS       STATUS+0, 2 
	GOTO        L_SPI_Ethernet_UserTCP30
;Master.c,266 :: 		idx = (getRequest[6] & 0x0F) * 10 + (getRequest[7] & 0x0F);
	MOVLW       15
	ANDWF       _getRequest+6, 0 
	MOVWF       R0 
	MOVLW       10
	MULWF       R0 
	MOVF        PRODL+0, 0 
	MOVWF       R1 
	MOVLW       15
	ANDWF       _getRequest+7, 0 
	MOVWF       R0 
	MOVF        R0, 0 
	ADDWF       R1, 0 
	MOVWF       R3 
	MOVF        R3, 0 
	MOVWF       SPI_Ethernet_UserTCP_idx_L1+0 
;Master.c,267 :: 		Program[idx].startHour =
	MOVF        R3, 0 
	MOVWF       R0 
	MOVLW       0
	MOVWF       R1 
	RLCF        R0, 1 
	BCF         R0, 0 
	RLCF        R1, 1 
	RLCF        R0, 1 
	BCF         R0, 0 
	RLCF        R1, 1 
	MOVLW       _Program+0
	ADDWF       R0, 1 
	MOVLW       hi_addr(_Program+0)
	ADDWFC      R1, 1 
	MOVF        R0, 0 
	MOVWF       FSR1L 
	MOVF        R1, 0 
	MOVWF       FSR1H 
;Master.c,268 :: 		(getRequest[8] & 0x0F) * 10 + (getRequest[9] & 0x0F);
	MOVLW       15
	ANDWF       _getRequest+8, 0 
	MOVWF       R0 
	MOVLW       10
	MULWF       R0 
	MOVF        PRODL+0, 0 
	MOVWF       R1 
	MOVLW       15
	ANDWF       _getRequest+9, 0 
	MOVWF       R0 
	MOVF        R1, 0 
	ADDWF       R0, 1 
	MOVF        R0, 0 
	MOVWF       POSTINC1+0 
;Master.c,269 :: 		Program[idx].startMin =
	MOVF        SPI_Ethernet_UserTCP_idx_L1+0, 0 
	MOVWF       R0 
	MOVLW       0
	MOVWF       R1 
	RLCF        R0, 1 
	BCF         R0, 0 
	RLCF        R1, 1 
	RLCF        R0, 1 
	BCF         R0, 0 
	RLCF        R1, 1 
	MOVLW       _Program+0
	ADDWF       R0, 1 
	MOVLW       hi_addr(_Program+0)
	ADDWFC      R1, 1 
	MOVLW       1
	ADDWF       R0, 0 
	MOVWF       FSR1L 
	MOVLW       0
	ADDWFC      R1, 0 
	MOVWF       FSR1H 
;Master.c,270 :: 		(getRequest[10] & 0x0F) * 10 + (getRequest[11] & 0x0F);
	MOVLW       15
	ANDWF       _getRequest+10, 0 
	MOVWF       R0 
	MOVLW       10
	MULWF       R0 
	MOVF        PRODL+0, 0 
	MOVWF       R1 
	MOVLW       15
	ANDWF       _getRequest+11, 0 
	MOVWF       R0 
	MOVF        R1, 0 
	ADDWF       R0, 1 
	MOVF        R0, 0 
	MOVWF       POSTINC1+0 
;Master.c,271 :: 		Program[idx].durationsH =
	MOVF        SPI_Ethernet_UserTCP_idx_L1+0, 0 
	MOVWF       R0 
	MOVLW       0
	MOVWF       R1 
	RLCF        R0, 1 
	BCF         R0, 0 
	RLCF        R1, 1 
	RLCF        R0, 1 
	BCF         R0, 0 
	RLCF        R1, 1 
	MOVLW       _Program+0
	ADDWF       R0, 1 
	MOVLW       hi_addr(_Program+0)
	ADDWFC      R1, 1 
	MOVLW       2
	ADDWF       R0, 0 
	MOVWF       FSR1L 
	MOVLW       0
	ADDWFC      R1, 0 
	MOVWF       FSR1H 
;Master.c,272 :: 		(getRequest[12] & 0x0F) * 10 + (getRequest[13] & 0x0F);
	MOVLW       15
	ANDWF       _getRequest+12, 0 
	MOVWF       R0 
	MOVLW       10
	MULWF       R0 
	MOVF        PRODL+0, 0 
	MOVWF       R1 
	MOVLW       15
	ANDWF       _getRequest+13, 0 
	MOVWF       R0 
	MOVF        R1, 0 
	ADDWF       R0, 1 
	MOVF        R0, 0 
	MOVWF       POSTINC1+0 
;Master.c,273 :: 		Program[idx].durationsL =
	MOVF        SPI_Ethernet_UserTCP_idx_L1+0, 0 
	MOVWF       R0 
	MOVLW       0
	MOVWF       R1 
	RLCF        R0, 1 
	BCF         R0, 0 
	RLCF        R1, 1 
	RLCF        R0, 1 
	BCF         R0, 0 
	RLCF        R1, 1 
	MOVLW       _Program+0
	ADDWF       R0, 1 
	MOVLW       hi_addr(_Program+0)
	ADDWFC      R1, 1 
	MOVLW       3
	ADDWF       R0, 0 
	MOVWF       FSR1L 
	MOVLW       0
	ADDWFC      R1, 0 
	MOVWF       FSR1H 
;Master.c,274 :: 		(getRequest[14] & 0x0F) * 10 + (getRequest[15] & 0x0F);
	MOVLW       15
	ANDWF       _getRequest+14, 0 
	MOVWF       R0 
	MOVLW       10
	MULWF       R0 
	MOVF        PRODL+0, 0 
	MOVWF       R1 
	MOVLW       15
	ANDWF       _getRequest+15, 0 
	MOVWF       R0 
	MOVF        R1, 0 
	ADDWF       R0, 1 
	MOVF        R0, 0 
	MOVWF       POSTINC1+0 
;Master.c,276 :: 		}
L_SPI_Ethernet_UserTCP30:
L_SPI_Ethernet_UserTCP29:
L_SPI_Ethernet_UserTCP27:
;Master.c,277 :: 		if (len == 0) {
	MOVLW       0
	XORWF       SPI_Ethernet_UserTCP_len_L0+1, 0 
	BTFSS       STATUS+0, 2 
	GOTO        L__SPI_Ethernet_UserTCP99
	MOVLW       0
	XORWF       SPI_Ethernet_UserTCP_len_L0+0, 0 
L__SPI_Ethernet_UserTCP99:
	BTFSS       STATUS+0, 2 
	GOTO        L_SPI_Ethernet_UserTCP31
;Master.c,278 :: 		formBuffer();
	CALL        _formBuffer+0, 0
;Master.c,279 :: 		len = putConstString(httpHeader);
	MOVLW       _httpHeader+0
	MOVWF       FARG_putConstString_s+0 
	MOVLW       hi_addr(_httpHeader+0)
	MOVWF       FARG_putConstString_s+1 
	MOVLW       higher_addr(_httpHeader+0)
	MOVWF       FARG_putConstString_s+2 
	CALL        _putConstString+0, 0
	MOVF        R0, 0 
	MOVWF       SPI_Ethernet_UserTCP_len_L0+0 
	MOVF        R1, 0 
	MOVWF       SPI_Ethernet_UserTCP_len_L0+1 
;Master.c,280 :: 		len += putConstString(httpMimeTypeHTML);
	MOVLW       _httpMimeTypeHTML+0
	MOVWF       FARG_putConstString_s+0 
	MOVLW       hi_addr(_httpMimeTypeHTML+0)
	MOVWF       FARG_putConstString_s+1 
	MOVLW       higher_addr(_httpMimeTypeHTML+0)
	MOVWF       FARG_putConstString_s+2 
	CALL        _putConstString+0, 0
	MOVF        R0, 0 
	ADDWF       SPI_Ethernet_UserTCP_len_L0+0, 1 
	MOVF        R1, 0 
	ADDWFC      SPI_Ethernet_UserTCP_len_L0+1, 1 
;Master.c,281 :: 		len += putString(buffer);
	MOVLW       _buffer+0
	MOVWF       FARG_putString_s+0 
	MOVLW       hi_addr(_buffer+0)
	MOVWF       FARG_putString_s+1 
	CALL        _putString+0, 0
	MOVF        R0, 0 
	ADDWF       SPI_Ethernet_UserTCP_len_L0+0, 1 
	MOVF        R1, 0 
	ADDWFC      SPI_Ethernet_UserTCP_len_L0+1, 1 
;Master.c,282 :: 		for (i = 0; i < 16; i++) {
	CLRF        SPI_Ethernet_UserTCP_i_L0+0 
	CLRF        SPI_Ethernet_UserTCP_i_L0+1 
L_SPI_Ethernet_UserTCP32:
	MOVLW       0
	SUBWF       SPI_Ethernet_UserTCP_i_L0+1, 0 
	BTFSS       STATUS+0, 2 
	GOTO        L__SPI_Ethernet_UserTCP100
	MOVLW       16
	SUBWF       SPI_Ethernet_UserTCP_i_L0+0, 0 
L__SPI_Ethernet_UserTCP100:
	BTFSC       STATUS+0, 0 
	GOTO        L_SPI_Ethernet_UserTCP33
;Master.c,283 :: 		Comm[i] = 0x00;
	MOVLW       _Comm+0
	ADDWF       SPI_Ethernet_UserTCP_i_L0+0, 0 
	MOVWF       FSR1L 
	MOVLW       hi_addr(_Comm+0)
	ADDWFC      SPI_Ethernet_UserTCP_i_L0+1, 0 
	MOVWF       FSR1H 
	CLRF        POSTINC1+0 
;Master.c,284 :: 		Hour[i] = 0x00;
	MOVLW       _Hour+0
	ADDWF       SPI_Ethernet_UserTCP_i_L0+0, 0 
	MOVWF       FSR1L 
	MOVLW       hi_addr(_Hour+0)
	ADDWFC      SPI_Ethernet_UserTCP_i_L0+1, 0 
	MOVWF       FSR1H 
	CLRF        POSTINC1+0 
;Master.c,285 :: 		Min[i] = 0x00;
	MOVLW       _Min+0
	ADDWF       SPI_Ethernet_UserTCP_i_L0+0, 0 
	MOVWF       FSR1L 
	MOVLW       hi_addr(_Min+0)
	ADDWFC      SPI_Ethernet_UserTCP_i_L0+1, 0 
	MOVWF       FSR1H 
	CLRF        POSTINC1+0 
;Master.c,286 :: 		Sec[i] = 0x00;
	MOVLW       _Sec+0
	ADDWF       SPI_Ethernet_UserTCP_i_L0+0, 0 
	MOVWF       FSR1L 
	MOVLW       hi_addr(_Sec+0)
	ADDWFC      SPI_Ethernet_UserTCP_i_L0+1, 0 
	MOVWF       FSR1H 
	CLRF        POSTINC1+0 
;Master.c,282 :: 		for (i = 0; i < 16; i++) {
	INFSNZ      SPI_Ethernet_UserTCP_i_L0+0, 1 
	INCF        SPI_Ethernet_UserTCP_i_L0+1, 1 
;Master.c,287 :: 		}
	GOTO        L_SPI_Ethernet_UserTCP32
L_SPI_Ethernet_UserTCP33:
;Master.c,288 :: 		}
L_SPI_Ethernet_UserTCP31:
;Master.c,289 :: 		return len; // return to the library with the number of bytes to transmit
	MOVF        SPI_Ethernet_UserTCP_len_L0+0, 0 
	MOVWF       R0 
	MOVF        SPI_Ethernet_UserTCP_len_L0+1, 0 
	MOVWF       R1 
;Master.c,290 :: 		}
	RETURN      0
; end of _SPI_Ethernet_UserTCP

_transmit:

;Master.c,292 :: 		void transmit(unsigned char DATA8b) {
;Master.c,293 :: 		TXREG = DATA8b;
	MOVF        FARG_transmit_DATA8b+0, 0 
	MOVWF       TXREG+0 
;Master.c,294 :: 		while (!TXSTA.TRMT)
L_transmit35:
	BTFSC       TXSTA+0, 1 
	GOTO        L_transmit36
;Master.c,295 :: 		;
	GOTO        L_transmit35
L_transmit36:
;Master.c,296 :: 		}
	RETURN      0
; end of _transmit

_interrupt:

;Master.c,298 :: 		void interrupt() {
;Master.c,299 :: 		if ((PIE1.TMR1IE == 1) && (PIR1.TMR1IF == 1)) {
	BTFSS       PIE1+0, 0 
	GOTO        L_interrupt39
	BTFSS       PIR1+0, 0 
	GOTO        L_interrupt39
L__interrupt96:
;Master.c,301 :: 		PIR1.TMR1IF = 0;
	BCF         PIR1+0, 0 
;Master.c,302 :: 		if (brojac == 0x04) { // na svakih 125ms prozivka slejvova
	MOVF        _brojac+0, 0 
	XORLW       4
	BTFSS       STATUS+0, 2 
	GOTO        L_interrupt40
;Master.c,303 :: 		brojac = 0x00;
	CLRF        _brojac+0 
;Master.c,304 :: 		Flag1 = 0x01;
	MOVLW       1
	MOVWF       _Flag1+0 
;Master.c,305 :: 		} else {
	GOTO        L_interrupt41
L_interrupt40:
;Master.c,306 :: 		brojac++;
	INCF        _brojac+0, 1 
;Master.c,307 :: 		}
L_interrupt41:
;Master.c,309 :: 		if ((ButtonInc == 1) && btnCnt == 0) {
	BTFSS       PORTB+0, 0 
	GOTO        L_interrupt44
	MOVF        _btnCnt+0, 0 
	XORLW       0
	BTFSS       STATUS+0, 2 
	GOTO        L_interrupt44
L__interrupt95:
;Master.c,310 :: 		btnCnt = 20;
	MOVLW       20
	MOVWF       _btnCnt+0 
;Master.c,311 :: 		updateLCDFlag = 1;
	MOVLW       1
	MOVWF       _updateLCDFlag+0 
;Master.c,312 :: 		if (cntDisp >= 20) {
	MOVLW       20
	SUBWF       _cntDisp+0, 0 
	BTFSS       STATUS+0, 0 
	GOTO        L_interrupt45
;Master.c,313 :: 		cntDisp = 0;
	CLRF        _cntDisp+0 
;Master.c,314 :: 		} else {
	GOTO        L_interrupt46
L_interrupt45:
;Master.c,315 :: 		cntDisp++;
	INCF        _cntDisp+0, 1 
;Master.c,316 :: 		}
L_interrupt46:
;Master.c,317 :: 		} else if(btnCnt>0) {
	GOTO        L_interrupt47
L_interrupt44:
	MOVF        _btnCnt+0, 0 
	SUBLW       0
	BTFSC       STATUS+0, 0 
	GOTO        L_interrupt48
;Master.c,318 :: 		btnCnt--;
	DECF        _btnCnt+0, 1 
;Master.c,319 :: 		}
L_interrupt48:
L_interrupt47:
;Master.c,320 :: 		if ((ButtonDec == 1) && btnCnt == 0) {
	BTFSS       PORTB+0, 1 
	GOTO        L_interrupt51
	MOVF        _btnCnt+0, 0 
	XORLW       0
	BTFSS       STATUS+0, 2 
	GOTO        L_interrupt51
L__interrupt94:
;Master.c,321 :: 		btnCnt = 20;
	MOVLW       20
	MOVWF       _btnCnt+0 
;Master.c,322 :: 		updateLCDFlag = 1;
	MOVLW       1
	MOVWF       _updateLCDFlag+0 
;Master.c,323 :: 		if (cntDisp == 0) {
	MOVF        _cntDisp+0, 0 
	XORLW       0
	BTFSS       STATUS+0, 2 
	GOTO        L_interrupt52
;Master.c,324 :: 		cntDisp = 20;
	MOVLW       20
	MOVWF       _cntDisp+0 
;Master.c,325 :: 		} else {
	GOTO        L_interrupt53
L_interrupt52:
;Master.c,326 :: 		cntDisp--;
	DECF        _cntDisp+0, 1 
;Master.c,327 :: 		}
L_interrupt53:
;Master.c,328 :: 		} else if(btnCnt>0) {
	GOTO        L_interrupt54
L_interrupt51:
	MOVF        _btnCnt+0, 0 
	SUBLW       0
	BTFSC       STATUS+0, 0 
	GOTO        L_interrupt55
;Master.c,329 :: 		btnCnt--;
	DECF        _btnCnt+0, 1 
;Master.c,330 :: 		}
L_interrupt55:
L_interrupt54:
;Master.c,332 :: 		TMR1L = 0xB5;
	MOVLW       181
	MOVWF       TMR1L+0 
;Master.c,333 :: 		TMR1H = 0xB3; /// reset tajmera
	MOVLW       179
	MOVWF       TMR1H+0 
;Master.c,334 :: 		}
L_interrupt39:
;Master.c,336 :: 		if ((PIE1.RCIE) && (PIR1.RCIF)) { // UART RECIEVE FROM SLAVE
	BTFSS       PIE1+0, 5 
	GOTO        L_interrupt58
	BTFSS       PIR1+0, 5 
	GOTO        L_interrupt58
L__interrupt93:
;Master.c,338 :: 		PIR1.RCIF = 0; // Recieve flag na 0
	BCF         PIR1+0, 5 
;Master.c,339 :: 		ch = RCREG;    // prima se bajt preko UART-a
	MOVF        RCREG+0, 0 
	MOVWF       R2 
;Master.c,341 :: 		switch (ByteID) {
	GOTO        L_interrupt59
;Master.c,342 :: 		case BYTE_ID_IDLE:
L_interrupt61:
;Master.c,343 :: 		break;
	GOTO        L_interrupt60
;Master.c,344 :: 		case BYTE_ID_CMD_BYTE:
L_interrupt62:
;Master.c,345 :: 		if ((ch & CMD_TYPE_MASK) == STATUS_CODE) {
	MOVLW       224
	ANDWF       R2, 0 
	MOVWF       R1 
	MOVF        R1, 0 
	XORLW       32
	BTFSS       STATUS+0, 2 
	GOTO        L_interrupt63
;Master.c,346 :: 		if ((ch & CMD_ID_MASK) == SLAVE_ID) {
	MOVLW       15
	ANDWF       R2, 0 
	MOVWF       R1 
	MOVF        R1, 0 
	XORWF       _SLAVE_ID+0, 0 
	BTFSS       STATUS+0, 2 
	GOTO        L_interrupt64
;Master.c,347 :: 		Comm[SLAVE_ID] = 1;
	MOVLW       _Comm+0
	MOVWF       FSR1L 
	MOVLW       hi_addr(_Comm+0)
	MOVWF       FSR1H 
	MOVF        _SLAVE_ID+0, 0 
	ADDWF       FSR1L, 1 
	BTFSC       STATUS+0, 0 
	INCF        FSR1H, 1 
	MOVLW       1
	MOVWF       POSTINC1+0 
;Master.c,348 :: 		ByteID = BYTE_ID_STATUS_BYTE;
	MOVLW       1
	MOVWF       _ByteID+0 
;Master.c,349 :: 		} else {
	GOTO        L_interrupt65
L_interrupt64:
;Master.c,350 :: 		ByteID = BYTE_ID_IDLE;
	CLRF        _ByteID+0 
;Master.c,351 :: 		}
L_interrupt65:
;Master.c,352 :: 		} else {
	GOTO        L_interrupt66
L_interrupt63:
;Master.c,353 :: 		ByteID = BYTE_ID_IDLE;
	CLRF        _ByteID+0 
;Master.c,354 :: 		}
L_interrupt66:
;Master.c,355 :: 		break;
	GOTO        L_interrupt60
;Master.c,356 :: 		case BYTE_ID_STATUS_BYTE:
L_interrupt67:
;Master.c,357 :: 		Status1[SLAVE_ID] = ch; // SWAM0000
	MOVLW       _Status1+0
	MOVWF       FSR1L 
	MOVLW       hi_addr(_Status1+0)
	MOVWF       FSR1H 
	MOVF        _SLAVE_ID+0, 0 
	ADDWF       FSR1L, 1 
	BTFSC       STATUS+0, 0 
	INCF        FSR1H, 1 
	MOVF        R2, 0 
	MOVWF       POSTINC1+0 
;Master.c,358 :: 		ByteID = BYTE_ID_IDLE;
	CLRF        _ByteID+0 
;Master.c,359 :: 		break;
	GOTO        L_interrupt60
;Master.c,360 :: 		default:
L_interrupt68:
;Master.c,361 :: 		ByteID = BYTE_ID_IDLE;
	CLRF        _ByteID+0 
;Master.c,362 :: 		break;
	GOTO        L_interrupt60
;Master.c,363 :: 		}
L_interrupt59:
	MOVF        _ByteID+0, 0 
	XORLW       0
	BTFSC       STATUS+0, 2 
	GOTO        L_interrupt61
	MOVF        _ByteID+0, 0 
	XORLW       2
	BTFSC       STATUS+0, 2 
	GOTO        L_interrupt62
	MOVF        _ByteID+0, 0 
	XORLW       1
	BTFSC       STATUS+0, 2 
	GOTO        L_interrupt67
	GOTO        L_interrupt68
L_interrupt60:
;Master.c,364 :: 		}
L_interrupt58:
;Master.c,365 :: 		}
L__interrupt101:
	RETFIE      1
; end of _interrupt

_lcdDisplayUchar:

;Master.c,368 :: 		unsigned char value) {
;Master.c,371 :: 		tens = 0x00;
	CLRF        lcdDisplayUchar_tens_L0+0 
;Master.c,372 :: 		ones = value;
	MOVF        FARG_lcdDisplayUchar_value+0, 0 
	MOVWF       lcdDisplayUchar_ones_L0+0 
;Master.c,373 :: 		while (ones > 9) {
L_lcdDisplayUchar69:
	MOVF        lcdDisplayUchar_ones_L0+0, 0 
	SUBLW       9
	BTFSC       STATUS+0, 0 
	GOTO        L_lcdDisplayUchar70
;Master.c,374 :: 		ones = ones - 10;
	MOVLW       10
	SUBWF       lcdDisplayUchar_ones_L0+0, 1 
;Master.c,375 :: 		tens++;
	INCF        lcdDisplayUchar_tens_L0+0, 1 
;Master.c,376 :: 		}
	GOTO        L_lcdDisplayUchar69
L_lcdDisplayUchar70:
;Master.c,377 :: 		Lcd_Chr(row, col, tens + '0');
	MOVF        FARG_lcdDisplayUchar_row+0, 0 
	MOVWF       FARG_Lcd_Chr_row+0 
	MOVF        FARG_lcdDisplayUchar_col+0, 0 
	MOVWF       FARG_Lcd_Chr_column+0 
	MOVLW       48
	ADDWF       lcdDisplayUchar_tens_L0+0, 0 
	MOVWF       FARG_Lcd_Chr_out_char+0 
	CALL        _Lcd_Chr+0, 0
;Master.c,378 :: 		Lcd_Chr(row, col + 1, ones + '0');
	MOVF        FARG_lcdDisplayUchar_row+0, 0 
	MOVWF       FARG_Lcd_Chr_row+0 
	MOVF        FARG_lcdDisplayUchar_col+0, 0 
	ADDLW       1
	MOVWF       FARG_Lcd_Chr_column+0 
	MOVLW       48
	ADDWF       lcdDisplayUchar_ones_L0+0, 0 
	MOVWF       FARG_Lcd_Chr_out_char+0 
	CALL        _Lcd_Chr+0, 0
;Master.c,379 :: 		}
	RETURN      0
; end of _lcdDisplayUchar

_lcdDisplayBit:

;Master.c,380 :: 		void lcdDisplayBit(unsigned char mask) {
;Master.c,382 :: 		for (i = 0; i <= 16; i++) {
	CLRF        lcdDisplayBit_i_L0+0 
L_lcdDisplayBit71:
	MOVF        lcdDisplayBit_i_L0+0, 0 
	SUBLW       16
	BTFSS       STATUS+0, 0 
	GOTO        L_lcdDisplayBit72
;Master.c,383 :: 		if ((Status1[i] & mask) == mask) {
	MOVLW       _Status1+0
	MOVWF       FSR0L 
	MOVLW       hi_addr(_Status1+0)
	MOVWF       FSR0H 
	MOVF        lcdDisplayBit_i_L0+0, 0 
	ADDWF       FSR0L, 1 
	BTFSC       STATUS+0, 0 
	INCF        FSR0H, 1 
	MOVF        FARG_lcdDisplayBit_mask+0, 0 
	ANDWF       POSTINC0+0, 0 
	MOVWF       R1 
	MOVF        R1, 0 
	XORWF       FARG_lcdDisplayBit_mask+0, 0 
	BTFSS       STATUS+0, 2 
	GOTO        L_lcdDisplayBit74
;Master.c,384 :: 		Lcd_Chr(2, 16 - i, '1');
	MOVLW       2
	MOVWF       FARG_Lcd_Chr_row+0 
	MOVF        lcdDisplayBit_i_L0+0, 0 
	SUBLW       16
	MOVWF       FARG_Lcd_Chr_column+0 
	MOVLW       49
	MOVWF       FARG_Lcd_Chr_out_char+0 
	CALL        _Lcd_Chr+0, 0
;Master.c,385 :: 		}else{
	GOTO        L_lcdDisplayBit75
L_lcdDisplayBit74:
;Master.c,386 :: 		Lcd_Chr(2, 16 - i, '0');
	MOVLW       2
	MOVWF       FARG_Lcd_Chr_row+0 
	MOVF        lcdDisplayBit_i_L0+0, 0 
	SUBLW       16
	MOVWF       FARG_Lcd_Chr_column+0 
	MOVLW       48
	MOVWF       FARG_Lcd_Chr_out_char+0 
	CALL        _Lcd_Chr+0, 0
;Master.c,387 :: 		}
L_lcdDisplayBit75:
;Master.c,382 :: 		for (i = 0; i <= 16; i++) {
	INCF        lcdDisplayBit_i_L0+0, 1 
;Master.c,388 :: 		}
	GOTO        L_lcdDisplayBit71
L_lcdDisplayBit72:
;Master.c,389 :: 		}
	RETURN      0
; end of _lcdDisplayBit

_lcdDisplayProgram:

;Master.c,390 :: 		void lcdDisplayProgram(struct Mode Program, unsigned char ID) {
;Master.c,392 :: 		Lcd_Out(1, 1, "Prog: ");
	MOVLW       1
	MOVWF       FARG_Lcd_Out_row+0 
	MOVLW       1
	MOVWF       FARG_Lcd_Out_column+0 
	MOVLW       ?lstr9_Master+0
	MOVWF       FARG_Lcd_Out_text+0 
	MOVLW       hi_addr(?lstr9_Master+0)
	MOVWF       FARG_Lcd_Out_text+1 
	CALL        _Lcd_Out+0, 0
;Master.c,393 :: 		lcdDisplayUchar(1, 6, ID);
	MOVLW       1
	MOVWF       FARG_lcdDisplayUchar_row+0 
	MOVLW       6
	MOVWF       FARG_lcdDisplayUchar_col+0 
	MOVF        FARG_lcdDisplayProgram_ID+0, 0 
	MOVWF       FARG_lcdDisplayUchar_value+0 
	CALL        _lcdDisplayUchar+0, 0
;Master.c,394 :: 		Lcd_Out(1, 9, "   ");
	MOVLW       1
	MOVWF       FARG_Lcd_Out_row+0 
	MOVLW       9
	MOVWF       FARG_Lcd_Out_column+0 
	MOVLW       ?lstr10_Master+0
	MOVWF       FARG_Lcd_Out_text+0 
	MOVLW       hi_addr(?lstr10_Master+0)
	MOVWF       FARG_Lcd_Out_text+1 
	CALL        _Lcd_Out+0, 0
;Master.c,395 :: 		Lcd_Out(1, 12, "Totl");
	MOVLW       1
	MOVWF       FARG_Lcd_Out_row+0 
	MOVLW       12
	MOVWF       FARG_Lcd_Out_column+0 
	MOVLW       ?lstr11_Master+0
	MOVWF       FARG_Lcd_Out_text+0 
	MOVLW       hi_addr(?lstr11_Master+0)
	MOVWF       FARG_Lcd_Out_text+1 
	CALL        _Lcd_Out+0, 0
;Master.c,396 :: 		lcdDisplayUchar(2, 1, Program.startHour);
	MOVLW       2
	MOVWF       FARG_lcdDisplayUchar_row+0 
	MOVLW       1
	MOVWF       FARG_lcdDisplayUchar_col+0 
	MOVF        FARG_lcdDisplayProgram_Program+0, 0 
	MOVWF       FARG_lcdDisplayUchar_value+0 
	CALL        _lcdDisplayUchar+0, 0
;Master.c,397 :: 		Lcd_Chr(2, 3, ':');
	MOVLW       2
	MOVWF       FARG_Lcd_Chr_row+0 
	MOVLW       3
	MOVWF       FARG_Lcd_Chr_column+0 
	MOVLW       58
	MOVWF       FARG_Lcd_Chr_out_char+0 
	CALL        _Lcd_Chr+0, 0
;Master.c,398 :: 		lcdDisplayUchar(2, 4, Program.startMin);
	MOVLW       2
	MOVWF       FARG_lcdDisplayUchar_row+0 
	MOVLW       4
	MOVWF       FARG_lcdDisplayUchar_col+0 
	MOVF        FARG_lcdDisplayProgram_Program+1, 0 
	MOVWF       FARG_lcdDisplayUchar_value+0 
	CALL        _lcdDisplayUchar+0, 0
;Master.c,399 :: 		Lcd_Out(2, 6, "  ");
	MOVLW       2
	MOVWF       FARG_Lcd_Out_row+0 
	MOVLW       6
	MOVWF       FARG_Lcd_Out_column+0 
	MOVLW       ?lstr12_Master+0
	MOVWF       FARG_Lcd_Out_text+0 
	MOVLW       hi_addr(?lstr12_Master+0)
	MOVWF       FARG_Lcd_Out_text+1 
	CALL        _Lcd_Out+0, 0
;Master.c,400 :: 		Lcd_Chr(2, 8, '/');
	MOVLW       2
	MOVWF       FARG_Lcd_Chr_row+0 
	MOVLW       8
	MOVWF       FARG_Lcd_Chr_column+0 
	MOVLW       47
	MOVWF       FARG_Lcd_Chr_out_char+0 
	CALL        _Lcd_Chr+0, 0
;Master.c,401 :: 		lcdDisplayUchar(2, 10, Program.durationsH);
	MOVLW       2
	MOVWF       FARG_lcdDisplayUchar_row+0 
	MOVLW       10
	MOVWF       FARG_lcdDisplayUchar_col+0 
	MOVF        FARG_lcdDisplayProgram_Program+2, 0 
	MOVWF       FARG_lcdDisplayUchar_value+0 
	CALL        _lcdDisplayUchar+0, 0
;Master.c,402 :: 		lcdDisplayUchar(2, 13, Program.durationsL);
	MOVLW       2
	MOVWF       FARG_lcdDisplayUchar_row+0 
	MOVLW       13
	MOVWF       FARG_lcdDisplayUchar_col+0 
	MOVF        FARG_lcdDisplayProgram_Program+3, 0 
	MOVWF       FARG_lcdDisplayUchar_value+0 
	CALL        _lcdDisplayUchar+0, 0
;Master.c,403 :: 		}
	RETURN      0
; end of _lcdDisplayProgram

_updateLCD:

;Master.c,404 :: 		void updateLCD() {
;Master.c,405 :: 		if (cntDisp <= 16) {
	MOVF        _cntDisp+0, 0 
	SUBLW       16
	BTFSS       STATUS+0, 0 
	GOTO        L_updateLCD76
;Master.c,406 :: 		lcdDisplayProgram(Program[cntDisp], cntDisp);
	MOVF        _cntDisp+0, 0 
	MOVWF       R0 
	MOVLW       0
	MOVWF       R1 
	RLCF        R0, 1 
	BCF         R0, 0 
	RLCF        R1, 1 
	RLCF        R0, 1 
	BCF         R0, 0 
	RLCF        R1, 1 
	MOVLW       _Program+0
	ADDWF       R0, 0 
	MOVWF       FSR0L 
	MOVLW       hi_addr(_Program+0)
	ADDWFC      R1, 0 
	MOVWF       FSR0H 
	MOVLW       4
	MOVWF       R0 
	MOVLW       FARG_lcdDisplayProgram_Program+0
	MOVWF       FSR1L 
	MOVLW       hi_addr(FARG_lcdDisplayProgram_Program+0)
	MOVWF       FSR1H 
L_updateLCD77:
	MOVF        POSTINC0+0, 0 
	MOVWF       POSTINC1+0 
	DECF        R0, 1 
	BTFSS       STATUS+0, 2 
	GOTO        L_updateLCD77
	MOVF        _cntDisp+0, 0 
	MOVWF       FARG_lcdDisplayProgram_ID+0 
	CALL        _lcdDisplayProgram+0, 0
;Master.c,407 :: 		} else if (cntDisp == 17) { // System
	GOTO        L_updateLCD78
L_updateLCD76:
	MOVF        _cntDisp+0, 0 
	XORLW       17
	BTFSS       STATUS+0, 2 
	GOTO        L_updateLCD79
;Master.c,408 :: 		Lcd_Out(1, 1, "Operation");
	MOVLW       1
	MOVWF       FARG_Lcd_Out_row+0 
	MOVLW       1
	MOVWF       FARG_Lcd_Out_column+0 
	MOVLW       ?lstr13_Master+0
	MOVWF       FARG_Lcd_Out_text+0 
	MOVLW       hi_addr(?lstr13_Master+0)
	MOVWF       FARG_Lcd_Out_text+1 
	CALL        _Lcd_Out+0, 0
;Master.c,409 :: 		Lcd_Out(1, 10, "      ");
	MOVLW       1
	MOVWF       FARG_Lcd_Out_row+0 
	MOVLW       10
	MOVWF       FARG_Lcd_Out_column+0 
	MOVLW       ?lstr14_Master+0
	MOVWF       FARG_Lcd_Out_text+0 
	MOVLW       hi_addr(?lstr14_Master+0)
	MOVWF       FARG_Lcd_Out_text+1 
	CALL        _Lcd_Out+0, 0
;Master.c,410 :: 		lcdDisplayBit(STATUS_SYSTEM_BIT);
	MOVLW       128
	MOVWF       FARG_lcdDisplayBit_mask+0 
	CALL        _lcdDisplayBit+0, 0
;Master.c,411 :: 		} else if (cntDisp == 18) { // Watering
	GOTO        L_updateLCD80
L_updateLCD79:
	MOVF        _cntDisp+0, 0 
	XORLW       18
	BTFSS       STATUS+0, 2 
	GOTO        L_updateLCD81
;Master.c,412 :: 		Lcd_Out(1, 1, "Watering");
	MOVLW       1
	MOVWF       FARG_Lcd_Out_row+0 
	MOVLW       1
	MOVWF       FARG_Lcd_Out_column+0 
	MOVLW       ?lstr15_Master+0
	MOVWF       FARG_Lcd_Out_text+0 
	MOVLW       hi_addr(?lstr15_Master+0)
	MOVWF       FARG_Lcd_Out_text+1 
	CALL        _Lcd_Out+0, 0
;Master.c,413 :: 		Lcd_Out(1, 9, "       ");
	MOVLW       1
	MOVWF       FARG_Lcd_Out_row+0 
	MOVLW       9
	MOVWF       FARG_Lcd_Out_column+0 
	MOVLW       ?lstr16_Master+0
	MOVWF       FARG_Lcd_Out_text+0 
	MOVLW       hi_addr(?lstr16_Master+0)
	MOVWF       FARG_Lcd_Out_text+1 
	CALL        _Lcd_Out+0, 0
;Master.c,414 :: 		lcdDisplayBit(STATUS_WATER_BIT);
	MOVLW       64
	MOVWF       FARG_lcdDisplayBit_mask+0 
	CALL        _lcdDisplayBit+0, 0
;Master.c,415 :: 		} else if (cntDisp == 19) { // Alarm
	GOTO        L_updateLCD82
L_updateLCD81:
	MOVF        _cntDisp+0, 0 
	XORLW       19
	BTFSS       STATUS+0, 2 
	GOTO        L_updateLCD83
;Master.c,416 :: 		Lcd_Out(1, 1, "Alarm");
	MOVLW       1
	MOVWF       FARG_Lcd_Out_row+0 
	MOVLW       1
	MOVWF       FARG_Lcd_Out_column+0 
	MOVLW       ?lstr17_Master+0
	MOVWF       FARG_Lcd_Out_text+0 
	MOVLW       hi_addr(?lstr17_Master+0)
	MOVWF       FARG_Lcd_Out_text+1 
	CALL        _Lcd_Out+0, 0
;Master.c,417 :: 		Lcd_Out(1, 6, "         ");
	MOVLW       1
	MOVWF       FARG_Lcd_Out_row+0 
	MOVLW       6
	MOVWF       FARG_Lcd_Out_column+0 
	MOVLW       ?lstr18_Master+0
	MOVWF       FARG_Lcd_Out_text+0 
	MOVLW       hi_addr(?lstr18_Master+0)
	MOVWF       FARG_Lcd_Out_text+1 
	CALL        _Lcd_Out+0, 0
;Master.c,418 :: 		lcdDisplayBit(STATUS_ALARM_BIT);
	MOVLW       32
	MOVWF       FARG_lcdDisplayBit_mask+0 
	CALL        _lcdDisplayBit+0, 0
;Master.c,419 :: 		} else if (cntDisp == 20) { // Manual
	GOTO        L_updateLCD84
L_updateLCD83:
	MOVF        _cntDisp+0, 0 
	XORLW       20
	BTFSS       STATUS+0, 2 
	GOTO        L_updateLCD85
;Master.c,420 :: 		Lcd_Out(1, 1, "Manual");
	MOVLW       1
	MOVWF       FARG_Lcd_Out_row+0 
	MOVLW       1
	MOVWF       FARG_Lcd_Out_column+0 
	MOVLW       ?lstr19_Master+0
	MOVWF       FARG_Lcd_Out_text+0 
	MOVLW       hi_addr(?lstr19_Master+0)
	MOVWF       FARG_Lcd_Out_text+1 
	CALL        _Lcd_Out+0, 0
;Master.c,421 :: 		Lcd_Out(1, 7, "         ");
	MOVLW       1
	MOVWF       FARG_Lcd_Out_row+0 
	MOVLW       7
	MOVWF       FARG_Lcd_Out_column+0 
	MOVLW       ?lstr20_Master+0
	MOVWF       FARG_Lcd_Out_text+0 
	MOVLW       hi_addr(?lstr20_Master+0)
	MOVWF       FARG_Lcd_Out_text+1 
	CALL        _Lcd_Out+0, 0
;Master.c,422 :: 		lcdDisplayBit(STATUS_MANUAL_BIT);
	MOVLW       16
	MOVWF       FARG_lcdDisplayBit_mask+0 
	CALL        _lcdDisplayBit+0, 0
;Master.c,423 :: 		}
L_updateLCD85:
L_updateLCD84:
L_updateLCD82:
L_updateLCD80:
L_updateLCD78:
;Master.c,424 :: 		}
	RETURN      0
; end of _updateLCD

_main:

;Master.c,426 :: 		void main(void) {
;Master.c,427 :: 		init();
	CALL        _init+0, 0
;Master.c,428 :: 		init_variables();
	CALL        _init_variables+0, 0
;Master.c,430 :: 		while (1) {
L_main86:
;Master.c,431 :: 		SPI_Ethernet_doPacket();
	CALL        _SPI_Ethernet_doPacket+0, 0
;Master.c,434 :: 		if (Flag1 == 0x01) {
	MOVF        _Flag1+0, 0 
	XORLW       1
	BTFSS       STATUS+0, 2 
	GOTO        L_main88
;Master.c,435 :: 		Flag1 = 0x00;
	CLRF        _Flag1+0 
;Master.c,436 :: 		SLAVE_ID++;
	INCF        _SLAVE_ID+0, 1 
;Master.c,437 :: 		if (updateLCDFlag == 1) {
	MOVF        _updateLCDFlag+0, 0 
	XORLW       1
	BTFSS       STATUS+0, 2 
	GOTO        L_main89
;Master.c,438 :: 		updateLCDFlag = 0;
	CLRF        _updateLCDFlag+0 
;Master.c,440 :: 		updateLCD();
	CALL        _updateLCD+0, 0
;Master.c,441 :: 		}
L_main89:
;Master.c,442 :: 		DR = 1;
	BSF         PORTA+0, 5 
;Master.c,443 :: 		transmit(STATUS_CODE | SLAVE_ID); // pitamo za status slejva
	MOVLW       32
	IORWF       _SLAVE_ID+0, 0 
	MOVWF       FARG_transmit_DATA8b+0 
	CALL        _transmit+0, 0
;Master.c,444 :: 		DR = 0;
	BCF         PORTA+0, 5 
;Master.c,445 :: 		ByteID = BYTE_ID_CMD_BYTE; // ocekujemo cmd_byte
	MOVLW       2
	MOVWF       _ByteID+0 
;Master.c,446 :: 		if (SLAVE_ID == 0x10) {    // svi slejovi pollovani
	MOVF        _SLAVE_ID+0, 0 
	XORLW       16
	BTFSS       STATUS+0, 2 
	GOTO        L_main90
;Master.c,447 :: 		SLAVE_ID = 0x00;
	CLRF        _SLAVE_ID+0 
;Master.c,448 :: 		PORTA.F4 = 1;
	BSF         PORTA+0, 4 
;Master.c,450 :: 		}
L_main90:
;Master.c,451 :: 		if (Garden[SLAVE_ID].gardenSend == 0x01) {
	MOVF        _SLAVE_ID+0, 0 
	MOVWF       R0 
	MOVLW       0
	MOVWF       R1 
	RLCF        R0, 1 
	BCF         R0, 0 
	RLCF        R1, 1 
	MOVLW       _Garden+0
	ADDWF       R0, 1 
	MOVLW       hi_addr(_Garden+0)
	ADDWFC      R1, 1 
	MOVLW       1
	ADDWF       R0, 0 
	MOVWF       FSR0L 
	MOVLW       0
	ADDWFC      R1, 0 
	MOVWF       FSR0H 
	MOVF        POSTINC0+0, 0 
	XORLW       1
	BTFSS       STATUS+0, 2 
	GOTO        L_main91
;Master.c,452 :: 		DR = 1;
	BSF         PORTA+0, 5 
;Master.c,453 :: 		transmit(MODE_CODE | SLAVE_ID); // prvi komandni bajt
	MOVLW       160
	IORWF       _SLAVE_ID+0, 0 
	MOVWF       FARG_transmit_DATA8b+0 
	CALL        _transmit+0, 0
;Master.c,455 :: 		transmit(Program[Garden[SLAVE_ID].modeID].startHour);
	MOVF        _SLAVE_ID+0, 0 
	MOVWF       R0 
	MOVLW       0
	MOVWF       R1 
	RLCF        R0, 1 
	BCF         R0, 0 
	RLCF        R1, 1 
	MOVLW       _Garden+0
	ADDWF       R0, 0 
	MOVWF       FSR0L 
	MOVLW       hi_addr(_Garden+0)
	ADDWFC      R1, 0 
	MOVWF       FSR0H 
	MOVF        POSTINC0+0, 0 
	MOVWF       R3 
	MOVF        R3, 0 
	MOVWF       R0 
	MOVLW       0
	MOVWF       R1 
	RLCF        R0, 1 
	BCF         R0, 0 
	RLCF        R1, 1 
	RLCF        R0, 1 
	BCF         R0, 0 
	RLCF        R1, 1 
	MOVLW       _Program+0
	ADDWF       R0, 0 
	MOVWF       FSR0L 
	MOVLW       hi_addr(_Program+0)
	ADDWFC      R1, 0 
	MOVWF       FSR0H 
	MOVF        POSTINC0+0, 0 
	MOVWF       FARG_transmit_DATA8b+0 
	CALL        _transmit+0, 0
;Master.c,456 :: 		transmit(Program[Garden[SLAVE_ID].modeID].startMin);
	MOVF        _SLAVE_ID+0, 0 
	MOVWF       R0 
	MOVLW       0
	MOVWF       R1 
	RLCF        R0, 1 
	BCF         R0, 0 
	RLCF        R1, 1 
	MOVLW       _Garden+0
	ADDWF       R0, 0 
	MOVWF       FSR0L 
	MOVLW       hi_addr(_Garden+0)
	ADDWFC      R1, 0 
	MOVWF       FSR0H 
	MOVF        POSTINC0+0, 0 
	MOVWF       R3 
	MOVF        R3, 0 
	MOVWF       R0 
	MOVLW       0
	MOVWF       R1 
	RLCF        R0, 1 
	BCF         R0, 0 
	RLCF        R1, 1 
	RLCF        R0, 1 
	BCF         R0, 0 
	RLCF        R1, 1 
	MOVLW       _Program+0
	ADDWF       R0, 1 
	MOVLW       hi_addr(_Program+0)
	ADDWFC      R1, 1 
	MOVLW       1
	ADDWF       R0, 0 
	MOVWF       FSR0L 
	MOVLW       0
	ADDWFC      R1, 0 
	MOVWF       FSR0H 
	MOVF        POSTINC0+0, 0 
	MOVWF       FARG_transmit_DATA8b+0 
	CALL        _transmit+0, 0
;Master.c,457 :: 		transmit(Program[Garden[SLAVE_ID].modeID].durationsH);
	MOVF        _SLAVE_ID+0, 0 
	MOVWF       R0 
	MOVLW       0
	MOVWF       R1 
	RLCF        R0, 1 
	BCF         R0, 0 
	RLCF        R1, 1 
	MOVLW       _Garden+0
	ADDWF       R0, 0 
	MOVWF       FSR0L 
	MOVLW       hi_addr(_Garden+0)
	ADDWFC      R1, 0 
	MOVWF       FSR0H 
	MOVF        POSTINC0+0, 0 
	MOVWF       R3 
	MOVF        R3, 0 
	MOVWF       R0 
	MOVLW       0
	MOVWF       R1 
	RLCF        R0, 1 
	BCF         R0, 0 
	RLCF        R1, 1 
	RLCF        R0, 1 
	BCF         R0, 0 
	RLCF        R1, 1 
	MOVLW       _Program+0
	ADDWF       R0, 1 
	MOVLW       hi_addr(_Program+0)
	ADDWFC      R1, 1 
	MOVLW       2
	ADDWF       R0, 0 
	MOVWF       FSR0L 
	MOVLW       0
	ADDWFC      R1, 0 
	MOVWF       FSR0H 
	MOVF        POSTINC0+0, 0 
	MOVWF       FARG_transmit_DATA8b+0 
	CALL        _transmit+0, 0
;Master.c,458 :: 		transmit(Program[Garden[SLAVE_ID].modeID].durationsL);
	MOVF        _SLAVE_ID+0, 0 
	MOVWF       R0 
	MOVLW       0
	MOVWF       R1 
	RLCF        R0, 1 
	BCF         R0, 0 
	RLCF        R1, 1 
	MOVLW       _Garden+0
	ADDWF       R0, 0 
	MOVWF       FSR0L 
	MOVLW       hi_addr(_Garden+0)
	ADDWFC      R1, 0 
	MOVWF       FSR0H 
	MOVF        POSTINC0+0, 0 
	MOVWF       R3 
	MOVF        R3, 0 
	MOVWF       R0 
	MOVLW       0
	MOVWF       R1 
	RLCF        R0, 1 
	BCF         R0, 0 
	RLCF        R1, 1 
	RLCF        R0, 1 
	BCF         R0, 0 
	RLCF        R1, 1 
	MOVLW       _Program+0
	ADDWF       R0, 1 
	MOVLW       hi_addr(_Program+0)
	ADDWFC      R1, 1 
	MOVLW       3
	ADDWF       R0, 0 
	MOVWF       FSR0L 
	MOVLW       0
	ADDWFC      R1, 0 
	MOVWF       FSR0H 
	MOVF        POSTINC0+0, 0 
	MOVWF       FARG_transmit_DATA8b+0 
	CALL        _transmit+0, 0
;Master.c,459 :: 		DR = 0;
	BCF         PORTA+0, 5 
;Master.c,460 :: 		Garden[SLAVE_ID].gardenSend = 0x00;
	MOVF        _SLAVE_ID+0, 0 
	MOVWF       R0 
	MOVLW       0
	MOVWF       R1 
	RLCF        R0, 1 
	BCF         R0, 0 
	RLCF        R1, 1 
	MOVLW       _Garden+0
	ADDWF       R0, 1 
	MOVLW       hi_addr(_Garden+0)
	ADDWFC      R1, 1 
	MOVLW       1
	ADDWF       R0, 0 
	MOVWF       FSR1L 
	MOVLW       0
	ADDWFC      R1, 0 
	MOVWF       FSR1H 
	CLRF        POSTINC1+0 
;Master.c,461 :: 		ByteID = BYTE_ID_CMD_BYTE;
	MOVLW       2
	MOVWF       _ByteID+0 
;Master.c,462 :: 		}
L_main91:
;Master.c,463 :: 		}
L_main88:
;Master.c,464 :: 		PORTA.F4 = 0;
	BCF         PORTA+0, 4 
;Master.c,466 :: 		if (FlagRTC == 0x01) {
	MOVF        _FlagRTC+0, 0 
	XORLW       1
	BTFSS       STATUS+0, 2 
	GOTO        L_main92
;Master.c,467 :: 		DR = 1;
	BSF         PORTA+0, 5 
;Master.c,468 :: 		transmit(RTC_BROADCAST); // 0x1F
	MOVLW       127
	MOVWF       FARG_transmit_DATA8b+0 
	CALL        _transmit+0, 0
;Master.c,470 :: 		transmit(hours);
	MOVF        _hours+0, 0 
	MOVWF       FARG_transmit_DATA8b+0 
	CALL        _transmit+0, 0
;Master.c,471 :: 		transmit(minutes);
	MOVF        _minutes+0, 0 
	MOVWF       FARG_transmit_DATA8b+0 
	CALL        _transmit+0, 0
;Master.c,472 :: 		transmit(seconds);
	MOVF        _seconds+0, 0 
	MOVWF       FARG_transmit_DATA8b+0 
	CALL        _transmit+0, 0
;Master.c,473 :: 		DR = 0;
	BCF         PORTA+0, 5 
;Master.c,474 :: 		FlagRTC = 0x00;
	CLRF        _FlagRTC+0 
;Master.c,475 :: 		ByteID = BYTE_ID_CMD_BYTE;
	MOVLW       2
	MOVWF       _ByteID+0 
;Master.c,476 :: 		}
L_main92:
;Master.c,479 :: 		}
	GOTO        L_main86
;Master.c,480 :: 		}
	GOTO        $+0
; end of _main
